; Function Attrs: nofree norecurse nosync nounwind memory(readwrite, inaccessiblemem: none) uwtable
define void @Cnf_CutDeref(ptr noundef readonly captures(none) %0, ptr noundef readonly captures(none) %1) local_unnamed_addr #6 {
  %3 = getelementptr inbounds nuw i8, ptr %1, i64 24
  %4 = load i8, ptr %1, align 8, !tbaa !15
  %5 = icmp sgt i8 %4, 0
  br i1 %5, label %.lr.ph, label %.critedge

.lr.ph:                                           ; preds = %2, %14
  %indvars.iv = phi i64 [ %indvars.iv.next, %14 ], [ 0, %2 ]
  %6 = load ptr, ptr %0, align 8, !tbaa !30
  %7 = getelementptr i8, ptr %6, i64 32
  %.val = load ptr, ptr %7, align 8, !tbaa !31
  %.not.i = icmp eq ptr %.val, null
  br i1 %.not.i, label %.critedge, label %Aig_ManObj.exit

Aig_ManObj.exit:                                  ; preds = %.lr.ph
  %8 = getelementptr inbounds nuw [0 x i32], ptr %3, i64 0, i64 %indvars.iv
  %9 = load i32, ptr %8, align 4, !tbaa !26
  %10 = getelementptr i8, ptr %.val, i64 8
  %.val.i = load ptr, ptr %10, align 8, !tbaa !40
  %11 = sext i32 %9 to i64
  %12 = getelementptr inbounds ptr, ptr %.val.i, i64 %11
  %13 = load ptr, ptr %12, align 8, !tbaa !42
  %.not = icmp eq ptr %13, null
  br i1 %.not, label %.critedge, label %14

14:                                               ; preds = %Aig_ManObj.exit
  %15 = getelementptr inbounds nuw i8, ptr %13, i64 24
  %16 = load i64, ptr %15, align 8
  %17 = add i64 %16, 4294967232
  %18 = and i64 %17, 4294967232
  %19 = and i64 %16, -4294967233
  %20 = or disjoint i64 %18, %19
  store i64 %20, ptr %15, align 8
  %indvars.iv.next = add nuw nsw i64 %indvars.iv, 1
  %21 = load i8, ptr %1, align 8, !tbaa !15
  %22 = sext i8 %21 to i64
  %23 = icmp slt i64 %indvars.iv.next, %22
  br i1 %23, label %.lr.ph, label %.critedge, !llvm.loop !43

.critedge:                                        ; preds = %Aig_ManObj.exit, %14, %.lr.ph, %2
  ret void
}